target datalayout = "e-m:e-p270:32:32-p271:32:32-p272:64:64-i64:64-i128:128-f80:128-n8:16:32:64-S128"
target triple = "x86_64-pc-linux-gnu"

%struct.archive_write = type { %struct.archive, i32, i64, i64, ptr, i64, ptr, ptr, ptr, ptr, ptr, i32, i32, ptr, ptr, ptr, ptr, ptr, ptr, ptr, ptr, ptr, ptr, ptr, ptr, ptr, ptr }
%struct.archive = type { i32, i32, ptr, i32, ptr, i32, i32, ptr, %struct.archive_string, ptr, i32, i32, ptr, ptr, i64, i64, i64, i8, i64 }
%struct.archive_string = type { ptr, i64, i64 }
%struct.archive_write_filter = type { i64, ptr, ptr, ptr, ptr, ptr, ptr, ptr, ptr, ptr, ptr, i32, i32, i32, i32 }

@.str.8 = private unnamed_addr constant [21 x i8] c"archive_write_header\00", align 1
@.str.9 = private unnamed_addr constant [55 x i8] c"Format must be set before you can write to an archive.\00", align 1
@.str.10 = private unnamed_addr constant [28 x i8] c"Can't add archive to itself\00", align 1

; Function Attrs: nounwind uwtable
define internal i32 @__archive_write_filters_flush(ptr noundef %0) #0 {
  %2 = alloca ptr, align 8
  %3 = alloca ptr, align 8
  %4 = alloca i32, align 4
  %5 = alloca i32, align 4
  store ptr %0, ptr %2, align 8, !tbaa !4
  call void @llvm.lifetime.start.p0(i64 8, ptr %3) #9
  call void @llvm.lifetime.start.p0(i64 4, ptr %4) #9
  call void @llvm.lifetime.start.p0(i64 4, ptr %5) #9
  store i32 0, ptr %4, align 4, !tbaa !28
  %6 = load ptr, ptr %2, align 8, !tbaa !4
  %7 = getelementptr inbounds nuw %struct.archive_write, ptr %6, i32 0, i32 13
  %8 = load ptr, ptr %7, align 8, !tbaa !37
  store ptr %8, ptr %3, align 8, !tbaa !33
  br label %9

9:                                                ; preds = %41, %1
  %10 = load ptr, ptr %3, align 8, !tbaa !33
  %11 = icmp ne ptr %10, null
  br i1 %11, label %12, label %45

12:                                               ; preds = %9
  %13 = load ptr, ptr %3, align 8, !tbaa !33
  %14 = getelementptr inbounds nuw %struct.archive_write_filter, ptr %13, i32 0, i32 6
  %15 = load ptr, ptr %14, align 8, !tbaa !81
  %16 = icmp ne ptr %15, null
  br i1 %16, label %17, label %40

17:                                               ; preds = %12
  %18 = load ptr, ptr %3, align 8, !tbaa !33
  %19 = getelementptr inbounds nuw %struct.archive_write_filter, ptr %18, i32 0, i32 0
  %20 = load i64, ptr %19, align 8, !tbaa !42
  %21 = icmp sgt i64 %20, 0
  br i1 %21, label %22, label %40

22:                                               ; preds = %17
  %23 = load ptr, ptr %3, align 8, !tbaa !33
  %24 = getelementptr inbounds nuw %struct.archive_write_filter, ptr %23, i32 0, i32 6
  %25 = load ptr, ptr %24, align 8, !tbaa !81
  %26 = load ptr, ptr %3, align 8, !tbaa !33
  %27 = call i32 %25(ptr noundef %26)
  store i32 %27, ptr %5, align 4, !tbaa !28
  %28 = load i32, ptr %5, align 4, !tbaa !28
  %29 = load i32, ptr %4, align 4, !tbaa !28
  %30 = icmp slt i32 %28, %29
  br i1 %30, label %31, label %33

31:                                               ; preds = %22
  %32 = load i32, ptr %5, align 4, !tbaa !28
  store i32 %32, ptr %4, align 4, !tbaa !28
  br label %33

33:                                               ; preds = %31, %22
  %34 = load i32, ptr %5, align 4, !tbaa !28
  %35 = icmp slt i32 %34, -20
  br i1 %35, label %36, label %39

36:                                               ; preds = %33
  %37 = load ptr, ptr %3, align 8, !tbaa !33
  %38 = getelementptr inbounds nuw %struct.archive_write_filter, ptr %37, i32 0, i32 14
  store i32 32768, ptr %38, align 4, !tbaa !36
  br label %39

39:                                               ; preds = %36, %33
  br label %40

40:                                               ; preds = %39, %17, %12
  br label %41

41:                                               ; preds = %40
  %42 = load ptr, ptr %3, align 8, !tbaa !33
  %43 = getelementptr inbounds nuw %struct.archive_write_filter, ptr %42, i32 0, i32 2
  %44 = load ptr, ptr %43, align 8, !tbaa !39
  store ptr %44, ptr %3, align 8, !tbaa !33
  br label %9, !llvm.loop !82

45:                                               ; preds = %9
  %46 = load i32, ptr %4, align 4, !tbaa !28
  call void @llvm.lifetime.end.p0(i64 4, ptr %5) #9
  call void @llvm.lifetime.end.p0(i64 4, ptr %4) #9
  call void @llvm.lifetime.end.p0(i64 8, ptr %3) #9
  ret i32 %46
}

; Function Attrs: nounwind uwtable
define internal i32 @_archive_write_header(ptr noundef %0, ptr noundef %1) #0 {
  %3 = alloca i32, align 4
  %4 = alloca ptr, align 8
  %5 = alloca ptr, align 8
  %6 = alloca ptr, align 8
  %7 = alloca i32, align 4
  %8 = alloca i32, align 4
  %9 = alloca i32, align 4
  %10 = alloca i32, align 4
  store ptr %0, ptr %4, align 8, !tbaa !26
  store ptr %1, ptr %5, align 8, !tbaa !74
  call void @llvm.lifetime.start.p0(i64 8, ptr %6) #9
  %11 = load ptr, ptr %4, align 8, !tbaa !26
  store ptr %11, ptr %6, align 8, !tbaa !4
  call void @llvm.lifetime.start.p0(i64 4, ptr %7) #9
  call void @llvm.lifetime.start.p0(i64 4, ptr %8) #9
  br label %12

12:                                               ; preds = %2
  call void @llvm.lifetime.start.p0(i64 4, ptr %9) #9
  %13 = load ptr, ptr %6, align 8, !tbaa !4
  %14 = getelementptr inbounds nuw %struct.archive_write, ptr %13, i32 0, i32 0
  %15 = call i32 @__archive_check_magic(ptr noundef %14, i32 noundef -1329217314, i32 noundef 6, ptr noundef @.str.8)
  store i32 %15, ptr %9, align 4, !tbaa !28
  %16 = load i32, ptr %9, align 4, !tbaa !28
  %17 = icmp eq i32 %16, -30
  br i1 %17, label %18, label %19

18:                                               ; preds = %12
  store i32 -30, ptr %3, align 4
  store i32 1, ptr %10, align 4
  br label %20

19:                                               ; preds = %12
  store i32 0, ptr %10, align 4
  br label %20

20:                                               ; preds = %19, %18
  call void @llvm.lifetime.end.p0(i64 4, ptr %9) #9
  %21 = load i32, ptr %10, align 4
  switch i32 %21, label %132 [
    i32 0, label %22
  ]

22:                                               ; preds = %20
  br label %23

23:                                               ; preds = %22
  br label %24

24:                                               ; preds = %23
  %25 = load ptr, ptr %6, align 8, !tbaa !4
  %26 = getelementptr inbounds nuw %struct.archive_write, ptr %25, i32 0, i32 0
  call void @archive_clear_error(ptr noundef %26)
  %27 = load ptr, ptr %6, align 8, !tbaa !4
  %28 = getelementptr inbounds nuw %struct.archive_write, ptr %27, i32 0, i32 20
  %29 = load ptr, ptr %28, align 8, !tbaa !76
  %30 = icmp eq ptr %29, null
  br i1 %30, label %31, label %37

31:                                               ; preds = %24
  %32 = load ptr, ptr %6, align 8, !tbaa !4
  %33 = getelementptr inbounds nuw %struct.archive_write, ptr %32, i32 0, i32 0
  call void (ptr, i32, ptr, ...) @archive_set_error(ptr noundef %33, i32 noundef -1, ptr noundef @.str.9)
  %34 = load ptr, ptr %6, align 8, !tbaa !4
  %35 = getelementptr inbounds nuw %struct.archive_write, ptr %34, i32 0, i32 0
  %36 = getelementptr inbounds nuw %struct.archive, ptr %35, i32 0, i32 1
  store i32 32768, ptr %36, align 4, !tbaa !19
  store i32 -30, ptr %3, align 4
  store i32 1, ptr %10, align 4
  br label %132

37:                                               ; preds = %24
  %38 = load ptr, ptr %6, align 8, !tbaa !4
  %39 = getelementptr inbounds nuw %struct.archive_write, ptr %38, i32 0, i32 0
  %40 = call i32 @archive_write_finish_entry(ptr noundef %39)
  store i32 %40, ptr %7, align 4, !tbaa !28
  %41 = load i32, ptr %7, align 4, !tbaa !28
  %42 = icmp eq i32 %41, -30
  br i1 %42, label %43, label %47

43:                                               ; preds = %37
  %44 = load ptr, ptr %6, align 8, !tbaa !4
  %45 = getelementptr inbounds nuw %struct.archive_write, ptr %44, i32 0, i32 0
  %46 = getelementptr inbounds nuw %struct.archive, ptr %45, i32 0, i32 1
  store i32 32768, ptr %46, align 4, !tbaa !19
  store i32 -30, ptr %3, align 4
  store i32 1, ptr %10, align 4
  br label %132

47:                                               ; preds = %37
  %48 = load i32, ptr %7, align 4, !tbaa !28
  %49 = icmp slt i32 %48, 0
  br i1 %49, label %50, label %55

50:                                               ; preds = %47
  %51 = load i32, ptr %7, align 4, !tbaa !28
  %52 = icmp ne i32 %51, -20
  br i1 %52, label %53, label %55

53:                                               ; preds = %50
  %54 = load i32, ptr %7, align 4, !tbaa !28
  store i32 %54, ptr %3, align 4
  store i32 1, ptr %10, align 4
  br label %132

55:                                               ; preds = %50, %47
  %56 = load ptr, ptr %6, align 8, !tbaa !4
  %57 = getelementptr inbounds nuw %struct.archive_write, ptr %56, i32 0, i32 1
  %58 = load i32, ptr %57, align 8, !tbaa !30
  %59 = icmp ne i32 %58, 0
  br i1 %59, label %60, label %85

60:                                               ; preds = %55
  %61 = load ptr, ptr %5, align 8, !tbaa !74
  %62 = call i32 @archive_entry_dev_is_set(ptr noundef %61)
  %63 = icmp ne i32 %62, 0
  br i1 %63, label %64, label %85

64:                                               ; preds = %60
  %65 = load ptr, ptr %5, align 8, !tbaa !74
  %66 = call i32 @archive_entry_ino_is_set(ptr noundef %65)
  %67 = icmp ne i32 %66, 0
  br i1 %67, label %68, label %85

68:                                               ; preds = %64
  %69 = load ptr, ptr %5, align 8, !tbaa !74
  %70 = call i64 @archive_entry_dev(ptr noundef %69)
  %71 = load ptr, ptr %6, align 8, !tbaa !4
  %72 = getelementptr inbounds nuw %struct.archive_write, ptr %71, i32 0, i32 2
  %73 = load i64, ptr %72, align 8, !tbaa !31
  %74 = icmp eq i64 %70, %73
  br i1 %74, label %75, label %85

75:                                               ; preds = %68
  %76 = load ptr, ptr %5, align 8, !tbaa !74
  %77 = call i64 @archive_entry_ino64(ptr noundef %76)
  %78 = load ptr, ptr %6, align 8, !tbaa !4
  %79 = getelementptr inbounds nuw %struct.archive_write, ptr %78, i32 0, i32 3
  %80 = load i64, ptr %79, align 8, !tbaa !32
  %81 = icmp eq i64 %77, %80
  br i1 %81, label %82, label %85

82:                                               ; preds = %75
  %83 = load ptr, ptr %6, align 8, !tbaa !4
  %84 = getelementptr inbounds nuw %struct.archive_write, ptr %83, i32 0, i32 0
  call void (ptr, i32, ptr, ...) @archive_set_error(ptr noundef %84, i32 noundef 0, ptr noundef @.str.10)
  store i32 -25, ptr %3, align 4
  store i32 1, ptr %10, align 4
  br label %132

85:                                               ; preds = %75, %68, %64, %60, %55
  %86 = load ptr, ptr %6, align 8, !tbaa !4
  %87 = call i32 @__archive_write_filters_flush(ptr noundef %86)
  store i32 %87, ptr %8, align 4, !tbaa !28
  %88 = load i32, ptr %8, align 4, !tbaa !28
  %89 = icmp eq i32 %88, -25
  br i1 %89, label %90, label %91

90:                                               ; preds = %85
  store i32 -25, ptr %3, align 4
  store i32 1, ptr %10, align 4
  br label %132

91:                                               ; preds = %85
  %92 = load i32, ptr %8, align 4, !tbaa !28
  %93 = icmp eq i32 %92, -30
  br i1 %93, label %94, label %98

94:                                               ; preds = %91
  %95 = load ptr, ptr %6, align 8, !tbaa !4
  %96 = getelementptr inbounds nuw %struct.archive_write, ptr %95, i32 0, i32 0
  %97 = getelementptr inbounds nuw %struct.archive, ptr %96, i32 0, i32 1
  store i32 32768, ptr %97, align 4, !tbaa !19
  store i32 -30, ptr %3, align 4
  store i32 1, ptr %10, align 4
  br label %132

98:                                               ; preds = %91
  %99 = load i32, ptr %8, align 4, !tbaa !28
  %100 = load i32, ptr %7, align 4, !tbaa !28
  %101 = icmp slt i32 %99, %100
  br i1 %101, label %102, label %104

102:                                              ; preds = %98
  %103 = load i32, ptr %8, align 4, !tbaa !28
  store i32 %103, ptr %7, align 4, !tbaa !28
  br label %104

104:                                              ; preds = %102, %98
  %105 = load ptr, ptr %6, align 8, !tbaa !4
  %106 = getelementptr inbounds nuw %struct.archive_write, ptr %105, i32 0, i32 20
  %107 = load ptr, ptr %106, align 8, !tbaa !76
  %108 = load ptr, ptr %6, align 8, !tbaa !4
  %109 = load ptr, ptr %5, align 8, !tbaa !74
  %110 = call i32 %107(ptr noundef %108, ptr noundef %109)
  store i32 %110, ptr %8, align 4, !tbaa !28
  %111 = load i32, ptr %8, align 4, !tbaa !28
  %112 = icmp eq i32 %111, -25
  br i1 %112, label %113, label %114

113:                                              ; preds = %104
  store i32 -25, ptr %3, align 4
  store i32 1, ptr %10, align 4
  br label %132

114:                                              ; preds = %104
  %115 = load i32, ptr %8, align 4, !tbaa !28
  %116 = icmp eq i32 %115, -30
  br i1 %116, label %117, label %121

117:                                              ; preds = %114
  %118 = load ptr, ptr %6, align 8, !tbaa !4
  %119 = getelementptr inbounds nuw %struct.archive_write, ptr %118, i32 0, i32 0
  %120 = getelementptr inbounds nuw %struct.archive, ptr %119, i32 0, i32 1
  store i32 32768, ptr %120, align 4, !tbaa !19
  store i32 -30, ptr %3, align 4
  store i32 1, ptr %10, align 4
  br label %132

121:                                              ; preds = %114
  %122 = load i32, ptr %8, align 4, !tbaa !28
  %123 = load i32, ptr %7, align 4, !tbaa !28
  %124 = icmp slt i32 %122, %123
  br i1 %124, label %125, label %127

125:                                              ; preds = %121
  %126 = load i32, ptr %8, align 4, !tbaa !28
  store i32 %126, ptr %7, align 4, !tbaa !28
  br label %127

127:                                              ; preds = %125, %121
  %128 = load ptr, ptr %6, align 8, !tbaa !4
  %129 = getelementptr inbounds nuw %struct.archive_write, ptr %128, i32 0, i32 0
  %130 = getelementptr inbounds nuw %struct.archive, ptr %129, i32 0, i32 1
  store i32 4, ptr %130, align 4, !tbaa !19
  %131 = load i32, ptr %7, align 4, !tbaa !28
  store i32 %131, ptr %3, align 4
  store i32 1, ptr %10, align 4
  br label %132

132:                                              ; preds = %127, %117, %113, %94, %90, %82, %53, %43, %31, %20
  call void @llvm.lifetime.end.p0(i64 4, ptr %8) #9
  call void @llvm.lifetime.end.p0(i64 4, ptr %7) #9
  call void @llvm.lifetime.end.p0(i64 8, ptr %6) #9
  %133 = load i32, ptr %3, align 4
  ret i32 %133
}