; Function Attrs: nounwind uwtable
define internal i32 @_archive_write_header(ptr noundef %0, ptr noundef %1) #3 {
  %3 = tail call i32 @__archive_check_magic(ptr noundef %0, i32 noundef -1329217314, i32 noundef 6, ptr noundef nonnull @.str.8) #13
  %.not = icmp eq i32 %3, -30
  br i1 %.not, label %58, label %4

4:                                                ; preds = %2
  tail call void @archive_clear_error(ptr noundef %0) #13
  %5 = getelementptr inbounds nuw i8, ptr %0, i64 288
  %6 = load ptr, ptr %5, align 8, !tbaa !64
  %7 = icmp eq ptr %6, null
  br i1 %7, label %8, label %10

8:                                                ; preds = %4
  tail call void (ptr, i32, ptr, ...) @archive_set_error(ptr noundef nonnull %0, i32 noundef -1, ptr noundef nonnull @.str.9) #13
  %9 = getelementptr inbounds nuw i8, ptr %0, i64 4
  store i32 32768, ptr %9, align 4, !tbaa !17
  br label %58

10:                                               ; preds = %4
  %11 = tail call i32 @archive_write_finish_entry(ptr noundef nonnull %0) #13
  %12 = icmp eq i32 %11, -30
  br i1 %12, label %13, label %15

13:                                               ; preds = %10
  %14 = getelementptr inbounds nuw i8, ptr %0, i64 4
  store i32 32768, ptr %14, align 4, !tbaa !17
  br label %58

15:                                               ; preds = %10
  %16 = icmp slt i32 %11, 0
  %17 = icmp ne i32 %11, -20
  %or.cond = and i1 %16, %17
  br i1 %or.cond, label %58, label %18

18:                                               ; preds = %15
  %19 = getelementptr inbounds nuw i8, ptr %0, i64 144
  %20 = load i32, ptr %19, align 8, !tbaa !23
  %.not47 = icmp eq i32 %20, 0
  br i1 %.not47, label %36, label %21

21:                                               ; preds = %18
  %22 = tail call i32 @archive_entry_dev_is_set(ptr noundef %1) #13
  %.not48 = icmp eq i32 %22, 0
  br i1 %.not48, label %36, label %23

23:                                               ; preds = %21
  %24 = tail call i32 @archive_entry_ino_is_set(ptr noundef %1) #13
  %.not49 = icmp eq i32 %24, 0
  br i1 %.not49, label %36, label %25

25:                                               ; preds = %23
  %26 = tail call i64 @archive_entry_dev(ptr noundef %1) #13
  %27 = getelementptr inbounds nuw i8, ptr %0, i64 152
  %28 = load i64, ptr %27, align 8, !tbaa !24
  %29 = icmp eq i64 %26, %28
  br i1 %29, label %30, label %36

30:                                               ; preds = %25
  %31 = tail call i64 @archive_entry_ino64(ptr noundef %1) #13
  %32 = getelementptr inbounds nuw i8, ptr %0, i64 160
  %33 = load i64, ptr %32, align 8, !tbaa !25
  %34 = icmp eq i64 %31, %33
  br i1 %34, label %35, label %36

35:                                               ; preds = %30
  tail call void (ptr, i32, ptr, ...) @archive_set_error(ptr noundef nonnull %0, i32 noundef 0, ptr noundef nonnull @.str.10) #13
  br label %58

36:                                               ; preds = %30, %25, %23, %21, %18
  %37 = getelementptr inbounds nuw i8, ptr %0, i64 232
  %.016.i = load ptr, ptr %37, align 8, !tbaa !43
  %.not17.i = icmp eq ptr %.016.i, null
  br i1 %.not17.i, label %__archive_write_filters_flush.exit.thread, label %.lr.ph.i

.lr.ph.i:                                         ; preds = %36, %48
  %.019.i = phi ptr [ %.0.i, %48 ], [ %.016.i, %36 ]
  %.01218.i = phi i32 [ %.2.i, %48 ], [ 0, %36 ]
  %38 = getelementptr inbounds nuw i8, ptr %.019.i, i64 48
  %39 = load ptr, ptr %38, align 8, !tbaa !65
  %.not15.i = icmp eq ptr %39, null
  br i1 %.not15.i, label %48, label %40

40:                                               ; preds = %.lr.ph.i
  %41 = load i64, ptr %.019.i, align 8, !tbaa !34
  %42 = icmp sgt i64 %41, 0
  br i1 %42, label %43, label %48

43:                                               ; preds = %40
  %44 = tail call i32 %39(ptr noundef nonnull %.019.i) #13
  %spec.select.i = tail call i32 @llvm.smin.i32(i32 %44, i32 %.01218.i)
  %45 = icmp slt i32 %44, -20
  br i1 %45, label %46, label %48

46:                                               ; preds = %43
  %47 = getelementptr inbounds nuw i8, ptr %.019.i, i64 100
  store i32 32768, ptr %47, align 4, !tbaa !29
  br label %48

48:                                               ; preds = %46, %43, %40, %.lr.ph.i
  %.2.i = phi i32 [ %spec.select.i, %46 ], [ %spec.select.i, %43 ], [ %.01218.i, %40 ], [ %.01218.i, %.lr.ph.i ]
  %49 = getelementptr inbounds nuw i8, ptr %.019.i, i64 16
  %.0.i = load ptr, ptr %49, align 8, !tbaa !43
  %.not.i = icmp eq ptr %.0.i, null
  br i1 %.not.i, label %__archive_write_filters_flush.exit, label %.lr.ph.i, !llvm.loop !66

__archive_write_filters_flush.exit:               ; preds = %48
  switch i32 %.2.i, label %__archive_write_filters_flush.exit.thread [
    i32 -25, label %58
    i32 -30, label %50
  ]

50:                                               ; preds = %__archive_write_filters_flush.exit
  %51 = getelementptr inbounds nuw i8, ptr %0, i64 4
  store i32 32768, ptr %51, align 4, !tbaa !17
  br label %58

__archive_write_filters_flush.exit.thread:        ; preds = %36, %__archive_write_filters_flush.exit
  %.012.lcssa.i52 = phi i32 [ %.2.i, %__archive_write_filters_flush.exit ], [ 0, %36 ]
  %52 = load ptr, ptr %5, align 8, !tbaa !64
  %53 = tail call i32 %52(ptr noundef nonnull %0, ptr noundef %1) #13
  switch i32 %53, label %56 [
    i32 -25, label %58
    i32 -30, label %54
  ]

54:                                               ; preds = %__archive_write_filters_flush.exit.thread
  %55 = getelementptr inbounds nuw i8, ptr %0, i64 4
  store i32 32768, ptr %55, align 4, !tbaa !17
  br label %58

56:                                               ; preds = %__archive_write_filters_flush.exit.thread
  %spec.select = tail call i32 @llvm.smin.i32(i32 %.012.lcssa.i52, i32 %11)
  %spec.select50 = tail call i32 @llvm.smin.i32(i32 %53, i32 %spec.select)
  %57 = getelementptr inbounds nuw i8, ptr %0, i64 4
  store i32 4, ptr %57, align 4, !tbaa !17
  br label %58

58:                                               ; preds = %__archive_write_filters_flush.exit.thread, %__archive_write_filters_flush.exit, %15, %2, %56, %54, %50, %35, %13, %8
  %.1 = phi i32 [ -30, %8 ], [ -30, %13 ], [ -25, %35 ], [ -30, %50 ], [ -30, %54 ], [ %spec.select50, %56 ], [ -30, %2 ], [ %11, %15 ], [ %.2.i, %__archive_write_filters_flush.exit ], [ %53, %__archive_write_filters_flush.exit.thread ]
  ret i32 %.1
}